target datalayout = "e-m:e-p270:32:32-p271:32:32-p272:64:64-i64:64-i128:128-f80:128-n8:16:32:64-S128"
target triple = "x86_64-pc-linux-gnu"

%struct.j2k_prog_order = type { i32, [5 x i8] }
%struct.opj_j2k = type { i32, %union.anon, ptr, ptr, %struct.opj_cp, ptr, ptr, ptr, i32, ptr, ptr, i32, i32, i32 }
%union.anon = type { %struct.opj_j2k_dec }
%struct.opj_j2k_dec = type { i32, ptr, ptr, i32, i32, i32, i32, i32, i32, i32, i64, i32, i32, ptr, %struct.opj_j2k_tlm_info, i32, i32, ptr, i8 }
%struct.opj_j2k_tlm_info = type { i32, ptr, i32 }
%struct.opj_cp = type { i16, i32, i32, i32, i32, ptr, i32, i32, i32, ptr, ptr, i32, i32, ptr, ptr, ptr, i32, i32, i32, ptr, %union.anon.0, i32, i8 }
%union.anon.0 = type { %struct.opj_encoding_param }
%struct.opj_encoding_param = type { i32, i32, ptr, i8, i32, i8 }
%struct.opj_j2k_enc = type { i32, i32, i32, i32, i64, ptr, ptr, i32, ptr, i32, ptr, i32, i32, i32, i32 }
%struct.opj_poc = type { i32, i32, i32, i32, i32, i32, i32, i32, i32, i32, [5 x i8], i32, i32, i32, i32, i32, i32, i32, i32, i32, i32, i32, i32, i32, i32, i32, i32, i32, i32, i32, i32, i32, i32, i32, i32, i32 }
%struct.opj_tcp = type { i32, i32, i32, i32, i32, [100 x float], i32, [32 x %struct.opj_poc], i32, ptr, ptr, ptr, i32, i32, [100 x float], ptr, i32, i32, ptr, i32, ptr, ptr, ptr, ptr, i32, i32, ptr, i32, i32, i8 }

; Function Attrs: nounwind uwtable
define hidden ptr @opj_j2k_convert_progression_order(i32 noundef %0) #0 {
  %2 = alloca ptr, align 8
  %3 = alloca i32, align 4
  %4 = alloca ptr, align 8
  %5 = alloca i32, align 4
  store i32 %0, ptr %3, align 4, !tbaa !3
  call void @llvm.lifetime.start.p0(i64 8, ptr %4) #10
  store ptr @j2k_prog_order_list, ptr %4, align 8, !tbaa !7
  br label %6

6:                                                ; preds = %22, %1
  %7 = load ptr, ptr %4, align 8, !tbaa !7
  %8 = getelementptr inbounds nuw %struct.j2k_prog_order, ptr %7, i32 0, i32 0
  %9 = load i32, ptr %8, align 4, !tbaa !10
  %10 = icmp ne i32 %9, -1
  br i1 %10, label %11, label %25

11:                                               ; preds = %6
  %12 = load ptr, ptr %4, align 8, !tbaa !7
  %13 = getelementptr inbounds nuw %struct.j2k_prog_order, ptr %12, i32 0, i32 0
  %14 = load i32, ptr %13, align 4, !tbaa !10
  %15 = load i32, ptr %3, align 4, !tbaa !3
  %16 = icmp eq i32 %14, %15
  br i1 %16, label %17, label %21

17:                                               ; preds = %11
  %18 = load ptr, ptr %4, align 8, !tbaa !7
  %19 = getelementptr inbounds nuw %struct.j2k_prog_order, ptr %18, i32 0, i32 1
  %20 = getelementptr inbounds [5 x i8], ptr %19, i64 0, i64 0
  store ptr %20, ptr %2, align 8
  store i32 1, ptr %5, align 4
  br label %29

21:                                               ; preds = %11
  br label %22

22:                                               ; preds = %21
  %23 = load ptr, ptr %4, align 8, !tbaa !7
  %24 = getelementptr inbounds nuw %struct.j2k_prog_order, ptr %23, i32 1
  store ptr %24, ptr %4, align 8, !tbaa !7
  br label %6, !llvm.loop !12

25:                                               ; preds = %6
  %26 = load ptr, ptr %4, align 8, !tbaa !7
  %27 = getelementptr inbounds nuw %struct.j2k_prog_order, ptr %26, i32 0, i32 1
  %28 = getelementptr inbounds [5 x i8], ptr %27, i64 0, i64 0
  store ptr %28, ptr %2, align 8
  store i32 1, ptr %5, align 4
  br label %29

29:                                               ; preds = %25, %17
  call void @llvm.lifetime.end.p0(i64 8, ptr %4) #10
  %30 = load ptr, ptr %2, align 8
  ret ptr %30
}

; Function Attrs: nounwind uwtable
define internal i32 @opj_j2k_get_num_tp(ptr noundef %0, i32 noundef %1, i32 noundef %2) #0 {
  %4 = alloca ptr, align 8
  %5 = alloca i32, align 4
  %6 = alloca i32, align 4
  %7 = alloca ptr, align 8
  %8 = alloca i32, align 4
  %9 = alloca i32, align 4
  %10 = alloca ptr, align 8
  %11 = alloca ptr, align 8
  store ptr %0, ptr %4, align 8, !tbaa !50
  store i32 %1, ptr %5, align 4, !tbaa !3
  store i32 %2, ptr %6, align 4, !tbaa !3
  call void @llvm.lifetime.start.p0(i64 8, ptr %7) #10
  store ptr null, ptr %7, align 8, !tbaa !44
  call void @llvm.lifetime.start.p0(i64 4, ptr %8) #10
  call void @llvm.lifetime.start.p0(i64 4, ptr %9) #10
  store i32 1, ptr %9, align 4, !tbaa !3
  call void @llvm.lifetime.start.p0(i64 8, ptr %10) #10
  store ptr null, ptr %10, align 8, !tbaa !103
  call void @llvm.lifetime.start.p0(i64 8, ptr %11) #10
  store ptr null, ptr %11, align 8, !tbaa !121
  %12 = load ptr, ptr %4, align 8, !tbaa !50
  %13 = getelementptr inbounds nuw %struct.opj_cp, ptr %12, i32 0, i32 19
  %14 = load ptr, ptr %13, align 8, !tbaa !102
  %15 = load i32, ptr %6, align 4, !tbaa !3
  %16 = zext i32 %15 to i64
  %17 = getelementptr inbounds nuw %struct.opj_tcp, ptr %14, i64 %16
  store ptr %17, ptr %10, align 8, !tbaa !103
  %18 = load ptr, ptr %10, align 8, !tbaa !103
  %19 = getelementptr inbounds nuw %struct.opj_tcp, ptr %18, i32 0, i32 7
  %20 = load i32, ptr %5, align 4, !tbaa !3
  %21 = zext i32 %20 to i64
  %22 = getelementptr inbounds nuw [32 x %struct.opj_poc], ptr %19, i64 0, i64 %21
  store ptr %22, ptr %11, align 8, !tbaa !121
  %23 = load ptr, ptr %10, align 8, !tbaa !103
  %24 = getelementptr inbounds nuw %struct.opj_tcp, ptr %23, i32 0, i32 1
  %25 = load i32, ptr %24, align 4, !tbaa !115
  %26 = call ptr @opj_j2k_convert_progression_order(i32 noundef %25)
  store ptr %26, ptr %7, align 8, !tbaa !44
  %27 = load ptr, ptr %4, align 8, !tbaa !50
  %28 = getelementptr inbounds nuw %struct.opj_cp, ptr %27, i32 0, i32 20
  %29 = getelementptr inbounds nuw %struct.opj_encoding_param, ptr %28, i32 0, i32 5
  %30 = load i8, ptr %29, align 8
  %31 = and i8 %30, 1
  %32 = zext i8 %31 to i32
  %33 = icmp eq i32 %32, 1
  br i1 %33, label %34, label %92

34:                                               ; preds = %3
  store i32 0, ptr %8, align 4, !tbaa !3
  br label %35

35:                                               ; preds = %88, %34
  %36 = load i32, ptr %8, align 4, !tbaa !3
  %37 = icmp slt i32 %36, 4
  br i1 %37, label %38, label %91

38:                                               ; preds = %35
  %39 = load ptr, ptr %7, align 8, !tbaa !44
  %40 = load i32, ptr %8, align 4, !tbaa !3
  %41 = sext i32 %40 to i64
  %42 = getelementptr inbounds i8, ptr %39, i64 %41
  %43 = load i8, ptr %42, align 1, !tbaa !20
  %44 = sext i8 %43 to i32
  switch i32 %44, label %69 [
    i32 67, label %45
    i32 82, label %51
    i32 80, label %57
    i32 76, label %63
  ]

45:                                               ; preds = %38
  %46 = load ptr, ptr %11, align 8, !tbaa !121
  %47 = getelementptr inbounds nuw %struct.opj_poc, ptr %46, i32 0, i32 22
  %48 = load i32, ptr %47, align 4, !tbaa !527
  %49 = load i32, ptr %9, align 4, !tbaa !3
  %50 = mul i32 %49, %48
  store i32 %50, ptr %9, align 4, !tbaa !3
  br label %69

51:                                               ; preds = %38
  %52 = load ptr, ptr %11, align 8, !tbaa !121
  %53 = getelementptr inbounds nuw %struct.opj_poc, ptr %52, i32 0, i32 21
  %54 = load i32, ptr %53, align 4, !tbaa !528
  %55 = load i32, ptr %9, align 4, !tbaa !3
  %56 = mul i32 %55, %54
  store i32 %56, ptr %9, align 4, !tbaa !3
  br label %69

57:                                               ; preds = %38
  %58 = load ptr, ptr %11, align 8, !tbaa !121
  %59 = getelementptr inbounds nuw %struct.opj_poc, ptr %58, i32 0, i32 23
  %60 = load i32, ptr %59, align 4, !tbaa !529
  %61 = load i32, ptr %9, align 4, !tbaa !3
  %62 = mul i32 %61, %60
  store i32 %62, ptr %9, align 4, !tbaa !3
  br label %69

63:                                               ; preds = %38
  %64 = load ptr, ptr %11, align 8, !tbaa !121
  %65 = getelementptr inbounds nuw %struct.opj_poc, ptr %64, i32 0, i32 20
  %66 = load i32, ptr %65, align 4, !tbaa !530
  %67 = load i32, ptr %9, align 4, !tbaa !3
  %68 = mul i32 %67, %66
  store i32 %68, ptr %9, align 4, !tbaa !3
  br label %69

69:                                               ; preds = %38, %63, %57, %51, %45
  %70 = load ptr, ptr %4, align 8, !tbaa !50
  %71 = getelementptr inbounds nuw %struct.opj_cp, ptr %70, i32 0, i32 20
  %72 = getelementptr inbounds nuw %struct.opj_encoding_param, ptr %71, i32 0, i32 3
  %73 = load i8, ptr %72, align 8, !tbaa !20
  %74 = zext i8 %73 to i32
  %75 = load ptr, ptr %7, align 8, !tbaa !44
  %76 = load i32, ptr %8, align 4, !tbaa !3
  %77 = sext i32 %76 to i64
  %78 = getelementptr inbounds i8, ptr %75, i64 %77
  %79 = load i8, ptr %78, align 1, !tbaa !20
  %80 = sext i8 %79 to i32
  %81 = icmp eq i32 %74, %80
  br i1 %81, label %82, label %87

82:                                               ; preds = %69
  %83 = load i32, ptr %8, align 4, !tbaa !3
  %84 = load ptr, ptr %4, align 8, !tbaa !50
  %85 = getelementptr inbounds nuw %struct.opj_cp, ptr %84, i32 0, i32 20
  %86 = getelementptr inbounds nuw %struct.opj_encoding_param, ptr %85, i32 0, i32 1
  store i32 %83, ptr %86, align 4, !tbaa !20
  br label %91

87:                                               ; preds = %69
  br label %88

88:                                               ; preds = %87
  %89 = load i32, ptr %8, align 4, !tbaa !3
  %90 = add nsw i32 %89, 1
  store i32 %90, ptr %8, align 4, !tbaa !3
  br label %35, !llvm.loop !531

91:                                               ; preds = %82, %35
  br label %93

92:                                               ; preds = %3
  store i32 1, ptr %9, align 4, !tbaa !3
  br label %93

93:                                               ; preds = %92, %91
  %94 = load i32, ptr %9, align 4, !tbaa !3
  call void @llvm.lifetime.end.p0(i64 8, ptr %11) #10
  call void @llvm.lifetime.end.p0(i64 8, ptr %10) #10
  call void @llvm.lifetime.end.p0(i64 4, ptr %9) #10
  call void @llvm.lifetime.end.p0(i64 4, ptr %8) #10
  call void @llvm.lifetime.end.p0(i64 8, ptr %7) #10
  ret i32 %94
}

; Function Attrs: nounwind uwtable
define internal i32 @opj_j2k_calculate_tp(ptr noundef %0, ptr noundef %1, ptr noundef %2, ptr noundef %3, ptr noundef %4) #0 {
  %6 = alloca ptr, align 8
  %7 = alloca ptr, align 8
  %8 = alloca ptr, align 8
  %9 = alloca ptr, align 8
  %10 = alloca ptr, align 8
  %11 = alloca i32, align 4
  %12 = alloca i32, align 4
  %13 = alloca i32, align 4
  %14 = alloca ptr, align 8
  %15 = alloca i32, align 4
  %16 = alloca i32, align 4
  store ptr %0, ptr %6, align 8, !tbaa !14
  store ptr %1, ptr %7, align 8, !tbaa !50
  store ptr %2, ptr %8, align 8, !tbaa !134
  store ptr %3, ptr %9, align 8, !tbaa !47
  store ptr %4, ptr %10, align 8, !tbaa !48
  call void @llvm.lifetime.start.p0(i64 4, ptr %11) #10
  call void @llvm.lifetime.start.p0(i64 4, ptr %12) #10
  call void @llvm.lifetime.start.p0(i64 4, ptr %13) #10
  call void @llvm.lifetime.start.p0(i64 8, ptr %14) #10
  %17 = load ptr, ptr %7, align 8, !tbaa !50
  %18 = getelementptr inbounds nuw %struct.opj_cp, ptr %17, i32 0, i32 6
  %19 = load i32, ptr %18, align 8, !tbaa !63
  %20 = load ptr, ptr %7, align 8, !tbaa !50
  %21 = getelementptr inbounds nuw %struct.opj_cp, ptr %20, i32 0, i32 7
  %22 = load i32, ptr %21, align 4, !tbaa !64
  %23 = mul i32 %19, %22
  store i32 %23, ptr %13, align 4, !tbaa !3
  %24 = load ptr, ptr %8, align 8, !tbaa !134
  store i32 0, ptr %24, align 4, !tbaa !3
  %25 = load ptr, ptr %7, align 8, !tbaa !50
  %26 = getelementptr inbounds nuw %struct.opj_cp, ptr %25, i32 0, i32 19
  %27 = load ptr, ptr %26, align 8, !tbaa !102
  store ptr %27, ptr %14, align 8, !tbaa !103
  store i32 0, ptr %12, align 4, !tbaa !3
  br label %28

28:                                               ; preds = %64, %5
  %29 = load i32, ptr %12, align 4, !tbaa !3
  %30 = load i32, ptr %13, align 4, !tbaa !3
  %31 = icmp ult i32 %29, %30
  br i1 %31, label %32, label %67

32:                                               ; preds = %28
  call void @llvm.lifetime.start.p0(i64 4, ptr %15) #10
  store i32 0, ptr %15, align 4, !tbaa !3
  %33 = load ptr, ptr %9, align 8, !tbaa !47
  %34 = load ptr, ptr %7, align 8, !tbaa !50
  %35 = load i32, ptr %12, align 4, !tbaa !3
  call void @opj_pi_update_encoding_parameters(ptr noundef %33, ptr noundef %34, i32 noundef %35)
  store i32 0, ptr %11, align 4, !tbaa !3
  br label %36

36:                                               ; preds = %55, %32
  %37 = load i32, ptr %11, align 4, !tbaa !3
  %38 = load ptr, ptr %14, align 8, !tbaa !103
  %39 = getelementptr inbounds nuw %struct.opj_tcp, ptr %38, i32 0, i32 6
  %40 = load i32, ptr %39, align 4, !tbaa !130
  %41 = icmp ule i32 %37, %40
  br i1 %41, label %42, label %58

42:                                               ; preds = %36
  call void @llvm.lifetime.start.p0(i64 4, ptr %16) #10
  %43 = load ptr, ptr %7, align 8, !tbaa !50
  %44 = load i32, ptr %11, align 4, !tbaa !3
  %45 = load i32, ptr %12, align 4, !tbaa !3
  %46 = call i32 @opj_j2k_get_num_tp(ptr noundef %43, i32 noundef %44, i32 noundef %45)
  store i32 %46, ptr %16, align 4, !tbaa !3
  %47 = load ptr, ptr %8, align 8, !tbaa !134
  %48 = load i32, ptr %47, align 4, !tbaa !3
  %49 = load i32, ptr %16, align 4, !tbaa !3
  %50 = add i32 %48, %49
  %51 = load ptr, ptr %8, align 8, !tbaa !134
  store i32 %50, ptr %51, align 4, !tbaa !3
  %52 = load i32, ptr %16, align 4, !tbaa !3
  %53 = load i32, ptr %15, align 4, !tbaa !3
  %54 = add i32 %53, %52
  store i32 %54, ptr %15, align 4, !tbaa !3
  call void @llvm.lifetime.end.p0(i64 4, ptr %16) #10
  br label %55

55:                                               ; preds = %42
  %56 = load i32, ptr %11, align 4, !tbaa !3
  %57 = add i32 %56, 1
  store i32 %57, ptr %11, align 4, !tbaa !3
  br label %36, !llvm.loop !547

58:                                               ; preds = %36
  %59 = load i32, ptr %15, align 4, !tbaa !3
  %60 = load ptr, ptr %14, align 8, !tbaa !103
  %61 = getelementptr inbounds nuw %struct.opj_tcp, ptr %60, i32 0, i32 17
  store i32 %59, ptr %61, align 4, !tbaa !252
  %62 = load ptr, ptr %14, align 8, !tbaa !103
  %63 = getelementptr inbounds nuw %struct.opj_tcp, ptr %62, i32 1
  store ptr %63, ptr %14, align 8, !tbaa !103
  call void @llvm.lifetime.end.p0(i64 4, ptr %15) #10
  br label %64

64:                                               ; preds = %58
  %65 = load i32, ptr %12, align 4, !tbaa !3
  %66 = add i32 %65, 1
  store i32 %66, ptr %12, align 4, !tbaa !3
  br label %28, !llvm.loop !548

67:                                               ; preds = %28
  call void @llvm.lifetime.end.p0(i64 8, ptr %14) #10
  call void @llvm.lifetime.end.p0(i64 4, ptr %13) #10
  call void @llvm.lifetime.end.p0(i64 4, ptr %12) #10
  call void @llvm.lifetime.end.p0(i64 4, ptr %11) #10
  ret i32 1
}

; Function Attrs: nounwind uwtable
define internal i32 @opj_j2k_init_info(ptr noundef %0, ptr noundef %1, ptr noundef %2) #0 {
  %4 = alloca ptr, align 8
  %5 = alloca ptr, align 8
  %6 = alloca ptr, align 8
  %7 = alloca ptr, align 8
  store ptr %0, ptr %4, align 8, !tbaa !14
  store ptr %1, ptr %5, align 8, !tbaa !206
  store ptr %2, ptr %6, align 8, !tbaa !48
  call void @llvm.lifetime.start.p0(i64 8, ptr %7) #10
  store ptr null, ptr %7, align 8, !tbaa !514
  %8 = load ptr, ptr %4, align 8, !tbaa !14
  %9 = load ptr, ptr %4, align 8, !tbaa !14
  %10 = getelementptr inbounds nuw %struct.opj_j2k, ptr %9, i32 0, i32 4
  %11 = load ptr, ptr %4, align 8, !tbaa !14
  %12 = getelementptr inbounds nuw %struct.opj_j2k, ptr %11, i32 0, i32 1
  %13 = getelementptr inbounds nuw %struct.opj_j2k_enc, ptr %12, i32 0, i32 7
  %14 = load ptr, ptr %4, align 8, !tbaa !14
  %15 = getelementptr inbounds nuw %struct.opj_j2k, ptr %14, i32 0, i32 2
  %16 = load ptr, ptr %15, align 8, !tbaa !42
  %17 = load ptr, ptr %6, align 8, !tbaa !48
  %18 = call i32 @opj_j2k_calculate_tp(ptr noundef %8, ptr noundef %10, ptr noundef %13, ptr noundef %16, ptr noundef %17)
  call void @llvm.lifetime.end.p0(i64 8, ptr %7) #10
  ret i32 %18
}