; Function Attrs: nounwind uwtable
define internal noundef i32 @opj_j2k_init_info(ptr noundef initializes((48, 52)) %0, ptr readnone captures(none) %1, ptr readnone captures(none) %2) #3 {
  %4 = getelementptr inbounds nuw i8, ptr %0, i64 152
  %5 = getelementptr inbounds nuw i8, ptr %0, i64 48
  %6 = getelementptr inbounds nuw i8, ptr %0, i64 136
  %7 = load ptr, ptr %6, align 8, !tbaa !47
  %8 = getelementptr inbounds nuw i8, ptr %0, i64 184
  %9 = load i32, ptr %8, align 8, !tbaa !36
  %10 = getelementptr inbounds nuw i8, ptr %0, i64 188
  %11 = load i32, ptr %10, align 4, !tbaa !35
  %12 = mul i32 %11, %9
  store i32 0, ptr %5, align 4, !tbaa !125
  %13 = getelementptr inbounds nuw i8, ptr %0, i64 264
  %.not7.i = icmp eq i32 %12, 0
  br i1 %.not7.i, label %opj_j2k_calculate_tp.exit, label %.lr.ph.i

.lr.ph.i:                                         ; preds = %3
  %14 = load ptr, ptr %13, align 8, !tbaa !34
  %15 = getelementptr inbounds nuw i8, ptr %0, i64 296
  %16 = getelementptr inbounds nuw i8, ptr %0, i64 288
  %17 = getelementptr inbounds nuw i8, ptr %0, i64 276
  %wide.trip.count.i = zext i32 %12 to i64
  br label %18

18:                                               ; preds = %.split8.us, %.lr.ph.i
  %indvars.iv.i = phi i64 [ 0, %.lr.ph.i ], [ %indvars.iv.next.i, %.split8.us ]
  %.0246.i = phi ptr [ %14, %.lr.ph.i ], [ %72, %.split8.us ]
  %19 = trunc nuw i64 %indvars.iv.i to i32
  tail call void @opj_pi_update_encoding_parameters(ptr noundef %7, ptr noundef nonnull %4, i32 noundef %19) #21
  %20 = getelementptr inbounds nuw i8, ptr %.0246.i, i64 420
  %21 = load ptr, ptr %13, align 8, !tbaa !34
  %22 = getelementptr inbounds nuw %struct.opj_tcp, ptr %21, i64 %indvars.iv.i
  %23 = getelementptr inbounds nuw i8, ptr %22, i64 4
  %24 = getelementptr inbounds nuw i8, ptr %22, i64 424
  %25 = load i8, ptr %15, align 8
  %26 = and i8 %25, 1
  %.not.i.i = icmp eq i8 %26, 0
  br i1 %.not.i.i, label %.split.us.preheader, label %.split

.split.us.preheader:                              ; preds = %18
  %.pre = load i32, ptr %5, align 4, !tbaa !125
  br label %.split.us

.split.us:                                        ; preds = %.split.us.preheader, %.split.us
  %27 = phi i32 [ %28, %.split.us ], [ %.pre, %.split.us.preheader ]
  %.04.i.us = phi i32 [ %29, %.split.us ], [ 0, %.split.us.preheader ]
  %28 = add i32 %27, 1
  store i32 %28, ptr %5, align 4, !tbaa !125
  %29 = add i32 %.04.i.us, 1
  %30 = load i32, ptr %20, align 4, !tbaa !119
  %.not.i.us = icmp ugt i32 %29, %30
  br i1 %.not.i.us, label %.split8.us, label %.split.us, !llvm.loop !481

.split:                                           ; preds = %18
  %31 = load i8, ptr %16, align 8, !tbaa !12
  %32 = zext i8 %31 to i32
  br label %33

33:                                               ; preds = %opj_j2k_get_num_tp.exit.i, %.split
  %.04.i = phi i32 [ 0, %.split ], [ %69, %opj_j2k_get_num_tp.exit.i ]
  %.0233.i = phi i32 [ 0, %.split ], [ %68, %opj_j2k_get_num_tp.exit.i ]
  %34 = load i32, ptr %23, align 4, !tbaa !106
  br label %35

35:                                               ; preds = %35, %33
  %.0.i.i.i = phi ptr [ @j2k_prog_order_list, %33 ], [ %38, %35 ]
  %36 = load i32, ptr %.0.i.i.i, align 4, !tbaa !3
  %.not.i.i.i = icmp eq i32 %36, -1
  %37 = icmp eq i32 %36, %34
  %or.cond.i.i.i = or i1 %.not.i.i.i, %37
  %38 = getelementptr inbounds nuw i8, ptr %.0.i.i.i, i64 12
  br i1 %or.cond.i.i.i, label %opj_j2k_convert_progression_order.exit.i.i, label %35, !llvm.loop !8

opj_j2k_convert_progression_order.exit.i.i:       ; preds = %35
  %.06.i.i.i = getelementptr inbounds nuw i8, ptr %.0.i.i.i, i64 4
  %39 = zext i32 %.04.i to i64
  %40 = getelementptr inbounds nuw [32 x %struct.opj_poc], ptr %24, i64 0, i64 %39
  %41 = getelementptr inbounds nuw i8, ptr %40, i64 84
  %42 = getelementptr inbounds nuw i8, ptr %40, i64 96
  %43 = getelementptr inbounds nuw i8, ptr %40, i64 88
  %44 = getelementptr inbounds nuw i8, ptr %40, i64 92
  br label %45

45:                                               ; preds = %65, %opj_j2k_convert_progression_order.exit.i.i
  %indvars.iv.i.i = phi i64 [ 0, %opj_j2k_convert_progression_order.exit.i.i ], [ %indvars.iv.next.i.i, %65 ]
  %.027.i.i = phi i32 [ 1, %opj_j2k_convert_progression_order.exit.i.i ], [ %.1.i.i, %65 ]
  %46 = getelementptr inbounds nuw i8, ptr %.06.i.i.i, i64 %indvars.iv.i.i
  %47 = load i8, ptr %46, align 1, !tbaa !12
  switch i8 %47, label %60 [
    i8 67, label %48
    i8 82, label %51
    i8 80, label %54
    i8 76, label %57
  ]

48:                                               ; preds = %45
  %49 = load i32, ptr %44, align 4, !tbaa !368
  %50 = mul i32 %49, %.027.i.i
  br label %60

51:                                               ; preds = %45
  %52 = load i32, ptr %43, align 4, !tbaa !369
  %53 = mul i32 %52, %.027.i.i
  br label %60

54:                                               ; preds = %45
  %55 = load i32, ptr %42, align 4, !tbaa !370
  %56 = mul i32 %55, %.027.i.i
  br label %60

57:                                               ; preds = %45
  %58 = load i32, ptr %41, align 4, !tbaa !371
  %59 = mul i32 %58, %.027.i.i
  br label %60

60:                                               ; preds = %57, %54, %51, %48, %45
  %.1.i.i = phi i32 [ %.027.i.i, %45 ], [ %59, %57 ], [ %56, %54 ], [ %53, %51 ], [ %50, %48 ]
  %61 = sext i8 %47 to i32
  %62 = icmp eq i32 %32, %61
  br i1 %62, label %63, label %65

63:                                               ; preds = %60
  %64 = trunc nuw nsw i64 %indvars.iv.i.i to i32
  store i32 %64, ptr %17, align 4, !tbaa !12
  br label %opj_j2k_get_num_tp.exit.i

65:                                               ; preds = %60
  %indvars.iv.next.i.i = add nuw nsw i64 %indvars.iv.i.i, 1
  %exitcond.not.i.i = icmp eq i64 %indvars.iv.next.i.i, 4
  br i1 %exitcond.not.i.i, label %opj_j2k_get_num_tp.exit.i, label %45, !llvm.loop !372

opj_j2k_get_num_tp.exit.i:                        ; preds = %65, %63
  %66 = load i32, ptr %5, align 4, !tbaa !125
  %67 = add i32 %66, %.1.i.i
  store i32 %67, ptr %5, align 4, !tbaa !125
  %68 = add i32 %.1.i.i, %.0233.i
  %69 = add i32 %.04.i, 1
  %70 = load i32, ptr %20, align 4, !tbaa !119
  %.not.i = icmp ugt i32 %69, %70
  br i1 %.not.i, label %.split8.us, label %33, !llvm.loop !481

.split8.us:                                       ; preds = %opj_j2k_get_num_tp.exit.i, %.split.us
  %.us-phi = phi i32 [ %29, %.split.us ], [ %68, %opj_j2k_get_num_tp.exit.i ]
  %71 = getelementptr inbounds nuw i8, ptr %.0246.i, i64 5612
  store i32 %.us-phi, ptr %71, align 4, !tbaa !236
  %72 = getelementptr inbounds nuw i8, ptr %.0246.i, i64 5696
  %indvars.iv.next.i = add nuw nsw i64 %indvars.iv.i, 1
  %exitcond.not.i = icmp eq i64 %indvars.iv.next.i, %wide.trip.count.i
  br i1 %exitcond.not.i, label %opj_j2k_calculate_tp.exit, label %18, !llvm.loop !482

opj_j2k_calculate_tp.exit:                        ; preds = %.split8.us, %3
  ret i32 1
}